target datalayout = "e-m:e-p270:32:32-p271:32:32-p272:64:64-i64:64-i128:128-f80:128-n8:16:32:64-S128"
target triple = "x86_64-pc-linux-gnu"

%"class.Imf_3_4::KeyCode" = type { i32, i32, i32, i32, i32, i32, i32 }

; Function Attrs: mustprogress nounwind uwtable
define noundef zeroext i1 @_ZNK7Imf_3_47KeyCodeeqERKS0_(ptr noundef nonnull align 4 dereferenceable(28) %0, ptr noundef nonnull align 4 dereferenceable(28) %1) #1 align 2 {
  %3 = alloca ptr, align 8
  %4 = alloca ptr, align 8
  store ptr %0, ptr %3, align 8, !tbaa !3
  store ptr %1, ptr %4, align 8, !tbaa !3
  %5 = load ptr, ptr %3, align 8
  %6 = getelementptr inbounds nuw %"class.Imf_3_4::KeyCode", ptr %5, i32 0, i32 0
  %7 = load i32, ptr %6, align 4, !tbaa !10
  %8 = load ptr, ptr %4, align 8, !tbaa !3
  %9 = getelementptr inbounds nuw %"class.Imf_3_4::KeyCode", ptr %8, i32 0, i32 0
  %10 = load i32, ptr %9, align 4, !tbaa !10
  %11 = icmp eq i32 %7, %10
  br i1 %11, label %12, label %54

12:                                               ; preds = %2
  %13 = getelementptr inbounds nuw %"class.Imf_3_4::KeyCode", ptr %5, i32 0, i32 1
  %14 = load i32, ptr %13, align 4, !tbaa !12
  %15 = load ptr, ptr %4, align 8, !tbaa !3
  %16 = getelementptr inbounds nuw %"class.Imf_3_4::KeyCode", ptr %15, i32 0, i32 1
  %17 = load i32, ptr %16, align 4, !tbaa !12
  %18 = icmp eq i32 %14, %17
  br i1 %18, label %19, label %54

19:                                               ; preds = %12
  %20 = getelementptr inbounds nuw %"class.Imf_3_4::KeyCode", ptr %5, i32 0, i32 2
  %21 = load i32, ptr %20, align 4, !tbaa !13
  %22 = load ptr, ptr %4, align 8, !tbaa !3
  %23 = getelementptr inbounds nuw %"class.Imf_3_4::KeyCode", ptr %22, i32 0, i32 2
  %24 = load i32, ptr %23, align 4, !tbaa !13
  %25 = icmp eq i32 %21, %24
  br i1 %25, label %26, label %54

26:                                               ; preds = %19
  %27 = getelementptr inbounds nuw %"class.Imf_3_4::KeyCode", ptr %5, i32 0, i32 3
  %28 = load i32, ptr %27, align 4, !tbaa !14
  %29 = load ptr, ptr %4, align 8, !tbaa !3
  %30 = getelementptr inbounds nuw %"class.Imf_3_4::KeyCode", ptr %29, i32 0, i32 3
  %31 = load i32, ptr %30, align 4, !tbaa !14
  %32 = icmp eq i32 %28, %31
  br i1 %32, label %33, label %54

33:                                               ; preds = %26
  %34 = getelementptr inbounds nuw %"class.Imf_3_4::KeyCode", ptr %5, i32 0, i32 4
  %35 = load i32, ptr %34, align 4, !tbaa !15
  %36 = load ptr, ptr %4, align 8, !tbaa !3
  %37 = getelementptr inbounds nuw %"class.Imf_3_4::KeyCode", ptr %36, i32 0, i32 4
  %38 = load i32, ptr %37, align 4, !tbaa !15
  %39 = icmp eq i32 %35, %38
  br i1 %39, label %40, label %54

40:                                               ; preds = %33
  %41 = getelementptr inbounds nuw %"class.Imf_3_4::KeyCode", ptr %5, i32 0, i32 5
  %42 = load i32, ptr %41, align 4, !tbaa !16
  %43 = load ptr, ptr %4, align 8, !tbaa !3
  %44 = getelementptr inbounds nuw %"class.Imf_3_4::KeyCode", ptr %43, i32 0, i32 5
  %45 = load i32, ptr %44, align 4, !tbaa !16
  %46 = icmp eq i32 %42, %45
  br i1 %46, label %47, label %54

47:                                               ; preds = %40
  %48 = getelementptr inbounds nuw %"class.Imf_3_4::KeyCode", ptr %5, i32 0, i32 6
  %49 = load i32, ptr %48, align 4, !tbaa !17
  %50 = load ptr, ptr %4, align 8, !tbaa !3
  %51 = getelementptr inbounds nuw %"class.Imf_3_4::KeyCode", ptr %50, i32 0, i32 6
  %52 = load i32, ptr %51, align 4, !tbaa !17
  %53 = icmp eq i32 %49, %52
  br label %54

54:                                               ; preds = %47, %40, %33, %26, %19, %12, %2
  %55 = phi i1 [ false, %40 ], [ false, %33 ], [ false, %26 ], [ false, %19 ], [ false, %12 ], [ false, %2 ], [ %53, %47 ]
  ret i1 %55
}